; Function Attrs: mustprogress nounwind uwtable
define internal void @_ZNSt6thread11_State_implINS_8_InvokerISt5tupleIJZN12_GLOBAL__N_14Impl5startEiRKSt8functionIFvRKSt10shared_ptrIN3dap12ReaderWriterEEEERKS5_IFvPKcEEEUlvE_EEEEED0Ev(ptr noundef nonnull align 8 dereferenceable(80) %0) unnamed_addr #4 align 2 personality ptr @__gxx_personality_v0 {
  store ptr getelementptr inbounds ({ [5 x ptr] }, ptr @_ZTVNSt6thread11_State_implINS_8_InvokerISt5tupleIJZN12_GLOBAL__N_14Impl5startEiRKSt8functionIFvRKSt10shared_ptrIN3dap12ReaderWriterEEEERKS5_IFvPKcEEEUlvE_EEEEEE, i64 0, i32 0, i64 2), ptr %0, align 8
  %2 = getelementptr inbounds i8, ptr %0, i64 64
  %3 = load ptr, ptr %2, align 8
  %.not.i.i.i.i.i.i.i.i = icmp eq ptr %3, null
  br i1 %.not.i.i.i.i.i.i.i.i, label %_ZNSt8functionIFvPKcEED2Ev.exit.i.i.i.i.i.i, label %4

4:                                                ; preds = %1
  %5 = getelementptr inbounds i8, ptr %0, i64 48
  %6 = invoke noundef zeroext i1 %3(ptr noundef nonnull align 8 dereferenceable(16) %5, ptr noundef nonnull align 8 dereferenceable(16) %5, i32 noundef 3)
          to label %_ZNSt8functionIFvPKcEED2Ev.exit.i.i.i.i.i.i unwind label %7

7:                                                ; preds = %4
  %8 = landingpad { ptr, i32 }
          catch ptr null
  %9 = extractvalue { ptr, i32 } %8, 0
  tail call void @__clang_call_terminate(ptr %9) #13
  unreachable

_ZNSt8functionIFvPKcEED2Ev.exit.i.i.i.i.i.i:      ; preds = %4, %1
  %10 = getelementptr inbounds i8, ptr %0, i64 32
  %11 = load ptr, ptr %10, align 8
  %.not.i.i1.i.i.i.i.i.i = icmp eq ptr %11, null
  br i1 %.not.i.i1.i.i.i.i.i.i, label %_ZNSt6thread11_State_implINS_8_InvokerISt5tupleIJZN12_GLOBAL__N_14Impl5startEiRKSt8functionIFvRKSt10shared_ptrIN3dap12ReaderWriterEEEERKS5_IFvPKcEEEUlvE_EEEEED2Ev.exit, label %12

12:                                               ; preds = %_ZNSt8functionIFvPKcEED2Ev.exit.i.i.i.i.i.i
  %13 = getelementptr inbounds i8, ptr %0, i64 16
  %14 = invoke noundef zeroext i1 %11(ptr noundef nonnull align 8 dereferenceable(16) %13, ptr noundef nonnull align 8 dereferenceable(16) %13, i32 noundef 3)
          to label %_ZNSt6thread11_State_implINS_8_InvokerISt5tupleIJZN12_GLOBAL__N_14Impl5startEiRKSt8functionIFvRKSt10shared_ptrIN3dap12ReaderWriterEEEERKS5_IFvPKcEEEUlvE_EEEEED2Ev.exit unwind label %15

15:                                               ; preds = %12
  %16 = landingpad { ptr, i32 }
          catch ptr null
  %17 = extractvalue { ptr, i32 } %16, 0
  tail call void @__clang_call_terminate(ptr %17) #13
  unreachable

_ZNSt6thread11_State_implINS_8_InvokerISt5tupleIJZN12_GLOBAL__N_14Impl5startEiRKSt8functionIFvRKSt10shared_ptrIN3dap12ReaderWriterEEEERKS5_IFvPKcEEEUlvE_EEEEED2Ev.exit: ; preds = %_ZNSt8functionIFvPKcEED2Ev.exit.i.i.i.i.i.i, %12
  tail call void @_ZNSt6thread6_StateD2Ev(ptr noundef nonnull align 8 dereferenceable(8) %0) #12
  tail call void @_ZdlPv(ptr noundef nonnull %0) #15
  ret void
}